target datalayout = "e-m:e-p270:32:32-p271:32:32-p272:64:64-i64:64-i128:128-f80:128-n8:16:32:64-S128"
target triple = "x86_64-pc-linux-gnu"

%struct.Clu_Man_t_ = type { i32, i32, i32, i32, i32, i32, i32, i32, i32, i32, i32, i32, i32, i32, i32, ptr, ptr, ptr, ptr, i32, i32, i32, ptr, ptr, ptr, i32, i32, i32, i32, ptr, ptr, ptr, i32, i32 }
%struct.Cnf_Dat_t_ = type { ptr, i32, i32, i32, ptr, ptr, ptr, ptr, ptr, ptr }
%struct.Dar_Cut_t_ = type { i32, i32, [4 x i32] }
%struct.Vec_Int_t_ = type { i32, i32, ptr }

; Function Attrs: inlinehint nounwind uwtable
define internal void @Vec_IntGrow(ptr noundef %0, i32 noundef %1) #2 {
  %3 = alloca ptr, align 8
  %4 = alloca i32, align 4
  store ptr %0, ptr %3, align 8, !tbaa !90
  store i32 %1, ptr %4, align 4, !tbaa !21
  %5 = load ptr, ptr %3, align 8, !tbaa !90
  %6 = getelementptr inbounds nuw %struct.Vec_Int_t_, ptr %5, i32 0, i32 0
  %7 = load i32, ptr %6, align 8, !tbaa !97
  %8 = load i32, ptr %4, align 4, !tbaa !21
  %9 = icmp sge i32 %7, %8
  br i1 %9, label %10, label %11

10:                                               ; preds = %2
  br label %36

11:                                               ; preds = %2
  %12 = load ptr, ptr %3, align 8, !tbaa !90
  %13 = getelementptr inbounds nuw %struct.Vec_Int_t_, ptr %12, i32 0, i32 2
  %14 = load ptr, ptr %13, align 8, !tbaa !93
  %15 = icmp ne ptr %14, null
  br i1 %15, label %16, label %24

16:                                               ; preds = %11
  %17 = load ptr, ptr %3, align 8, !tbaa !90
  %18 = getelementptr inbounds nuw %struct.Vec_Int_t_, ptr %17, i32 0, i32 2
  %19 = load ptr, ptr %18, align 8, !tbaa !93
  %20 = load i32, ptr %4, align 4, !tbaa !21
  %21 = sext i32 %20 to i64
  %22 = mul i64 4, %21
  %23 = call ptr @realloc(ptr noundef %19, i64 noundef %22) #14
  br label %29

24:                                               ; preds = %11
  %25 = load i32, ptr %4, align 4, !tbaa !21
  %26 = sext i32 %25 to i64
  %27 = mul i64 4, %26
  %28 = call noalias ptr @malloc(i64 noundef %27) #12
  br label %29

29:                                               ; preds = %24, %16
  %30 = phi ptr [ %23, %16 ], [ %28, %24 ]
  %31 = load ptr, ptr %3, align 8, !tbaa !90
  %32 = getelementptr inbounds nuw %struct.Vec_Int_t_, ptr %31, i32 0, i32 2
  store ptr %30, ptr %32, align 8, !tbaa !93
  %33 = load i32, ptr %4, align 4, !tbaa !21
  %34 = load ptr, ptr %3, align 8, !tbaa !90
  %35 = getelementptr inbounds nuw %struct.Vec_Int_t_, ptr %34, i32 0, i32 0
  store i32 %33, ptr %35, align 8, !tbaa !97
  br label %36

36:                                               ; preds = %29, %10
  ret void
}

; Function Attrs: inlinehint nounwind uwtable
define internal i32 @Vec_IntSize(ptr noundef %0) #2 {
  %2 = alloca ptr, align 8
  store ptr %0, ptr %2, align 8, !tbaa !90
  %3 = load ptr, ptr %2, align 8, !tbaa !90
  %4 = getelementptr inbounds nuw %struct.Vec_Int_t_, ptr %3, i32 0, i32 1
  %5 = load i32, ptr %4, align 4, !tbaa !91
  ret i32 %5
}

; Function Attrs: inlinehint nounwind uwtable
define internal void @Vec_IntPush(ptr noundef %0, i32 noundef %1) #2 {
  %3 = alloca ptr, align 8
  %4 = alloca i32, align 4
  store ptr %0, ptr %3, align 8, !tbaa !90
  store i32 %1, ptr %4, align 4, !tbaa !21
  %5 = load ptr, ptr %3, align 8, !tbaa !90
  %6 = getelementptr inbounds nuw %struct.Vec_Int_t_, ptr %5, i32 0, i32 1
  %7 = load i32, ptr %6, align 4, !tbaa !91
  %8 = load ptr, ptr %3, align 8, !tbaa !90
  %9 = getelementptr inbounds nuw %struct.Vec_Int_t_, ptr %8, i32 0, i32 0
  %10 = load i32, ptr %9, align 8, !tbaa !97
  %11 = icmp eq i32 %7, %10
  br i1 %11, label %12, label %26

12:                                               ; preds = %2
  %13 = load ptr, ptr %3, align 8, !tbaa !90
  %14 = getelementptr inbounds nuw %struct.Vec_Int_t_, ptr %13, i32 0, i32 0
  %15 = load i32, ptr %14, align 8, !tbaa !97
  %16 = icmp slt i32 %15, 16
  br i1 %16, label %17, label %19

17:                                               ; preds = %12
  %18 = load ptr, ptr %3, align 8, !tbaa !90
  call void @Vec_IntGrow(ptr noundef %18, i32 noundef 16)
  br label %25

19:                                               ; preds = %12
  %20 = load ptr, ptr %3, align 8, !tbaa !90
  %21 = load ptr, ptr %3, align 8, !tbaa !90
  %22 = getelementptr inbounds nuw %struct.Vec_Int_t_, ptr %21, i32 0, i32 0
  %23 = load i32, ptr %22, align 8, !tbaa !97
  %24 = mul nsw i32 2, %23
  call void @Vec_IntGrow(ptr noundef %20, i32 noundef %24)
  br label %25

25:                                               ; preds = %19, %17
  br label %26

26:                                               ; preds = %25, %2
  %27 = load i32, ptr %4, align 4, !tbaa !21
  %28 = load ptr, ptr %3, align 8, !tbaa !90
  %29 = getelementptr inbounds nuw %struct.Vec_Int_t_, ptr %28, i32 0, i32 2
  %30 = load ptr, ptr %29, align 8, !tbaa !93
  %31 = load ptr, ptr %3, align 8, !tbaa !90
  %32 = getelementptr inbounds nuw %struct.Vec_Int_t_, ptr %31, i32 0, i32 1
  %33 = load i32, ptr %32, align 4, !tbaa !91
  %34 = add nsw i32 %33, 1
  store i32 %34, ptr %32, align 4, !tbaa !91
  %35 = sext i32 %33 to i64
  %36 = getelementptr inbounds i32, ptr %30, i64 %35
  store i32 %27, ptr %36, align 4, !tbaa !21
  ret void
}

; Function Attrs: inlinehint nounwind uwtable
define internal i32 @toLitCond(i32 noundef %0, i32 noundef %1) #2 {
  %3 = alloca i32, align 4
  %4 = alloca i32, align 4
  store i32 %0, ptr %3, align 4, !tbaa !21
  store i32 %1, ptr %4, align 4, !tbaa !21
  %5 = load i32, ptr %3, align 4, !tbaa !21
  %6 = load i32, ptr %3, align 4, !tbaa !21
  %7 = add nsw i32 %5, %6
  %8 = load i32, ptr %4, align 4, !tbaa !21
  %9 = icmp ne i32 %8, 0
  %10 = zext i1 %9 to i32
  %11 = add nsw i32 %7, %10
  ret i32 %11
}

; Function Attrs: nounwind uwtable
define void @Fra_ClausRecordClause(ptr noundef %0, ptr noundef %1, i32 noundef %2, i32 noundef %3) #0 {
  %5 = alloca ptr, align 8
  %6 = alloca ptr, align 8
  %7 = alloca i32, align 4
  %8 = alloca i32, align 4
  %9 = alloca i32, align 4
  store ptr %0, ptr %5, align 8, !tbaa !3
  store ptr %1, ptr %6, align 8, !tbaa !50
  store i32 %2, ptr %7, align 4, !tbaa !21
  store i32 %3, ptr %8, align 4, !tbaa !21
  call void @llvm.lifetime.start.p0(i64 4, ptr %9) #11
  store i32 0, ptr %9, align 4, !tbaa !21
  br label %10

10:                                               ; preds = %40, %4
  %11 = load i32, ptr %9, align 4, !tbaa !21
  %12 = load ptr, ptr %6, align 8, !tbaa !50
  %13 = getelementptr inbounds nuw %struct.Dar_Cut_t_, ptr %12, i32 0, i32 1
  %14 = load i32, ptr %13, align 4
  %15 = lshr i32 %14, 29
  %16 = icmp slt i32 %11, %15
  br i1 %16, label %17, label %43

17:                                               ; preds = %10
  %18 = load ptr, ptr %5, align 8, !tbaa !3
  %19 = getelementptr inbounds nuw %struct.Clu_Man_t_, ptr %18, i32 0, i32 22
  %20 = load ptr, ptr %19, align 8, !tbaa !94
  %21 = load ptr, ptr %5, align 8, !tbaa !3
  %22 = getelementptr inbounds nuw %struct.Clu_Man_t_, ptr %21, i32 0, i32 18
  %23 = load ptr, ptr %22, align 8, !tbaa !8
  %24 = getelementptr inbounds nuw %struct.Cnf_Dat_t_, ptr %23, i32 0, i32 5
  %25 = load ptr, ptr %24, align 8, !tbaa !27
  %26 = load ptr, ptr %6, align 8, !tbaa !50
  %27 = getelementptr inbounds nuw %struct.Dar_Cut_t_, ptr %26, i32 0, i32 2
  %28 = load i32, ptr %9, align 4, !tbaa !21
  %29 = sext i32 %28 to i64
  %30 = getelementptr inbounds [4 x i32], ptr %27, i64 0, i64 %29
  %31 = load i32, ptr %30, align 4, !tbaa !21
  %32 = sext i32 %31 to i64
  %33 = getelementptr inbounds i32, ptr %25, i64 %32
  %34 = load i32, ptr %33, align 4, !tbaa !21
  %35 = load i32, ptr %7, align 4, !tbaa !21
  %36 = load i32, ptr %9, align 4, !tbaa !21
  %37 = shl i32 1, %36
  %38 = and i32 %35, %37
  %39 = call i32 @toLitCond(i32 noundef %34, i32 noundef %38)
  call void @Vec_IntPush(ptr noundef %20, i32 noundef %39)
  br label %40

40:                                               ; preds = %17
  %41 = load i32, ptr %9, align 4, !tbaa !21
  %42 = add nsw i32 %41, 1
  store i32 %42, ptr %9, align 4, !tbaa !21
  br label %10, !llvm.loop !95

43:                                               ; preds = %10
  %44 = load ptr, ptr %5, align 8, !tbaa !3
  %45 = getelementptr inbounds nuw %struct.Clu_Man_t_, ptr %44, i32 0, i32 23
  %46 = load ptr, ptr %45, align 8, !tbaa !96
  %47 = load ptr, ptr %5, align 8, !tbaa !3
  %48 = getelementptr inbounds nuw %struct.Clu_Man_t_, ptr %47, i32 0, i32 22
  %49 = load ptr, ptr %48, align 8, !tbaa !94
  %50 = call i32 @Vec_IntSize(ptr noundef %49)
  call void @Vec_IntPush(ptr noundef %46, i32 noundef %50)
  %51 = load ptr, ptr %5, align 8, !tbaa !3
  %52 = getelementptr inbounds nuw %struct.Clu_Man_t_, ptr %51, i32 0, i32 24
  %53 = load ptr, ptr %52, align 8, !tbaa !83
  %54 = load i32, ptr %8, align 4, !tbaa !21
  call void @Vec_IntPush(ptr noundef %53, i32 noundef %54)
  call void @llvm.lifetime.end.p0(i64 4, ptr %9) #11
  ret void
}