; Function Attrs: nounwind uwtable
define void @Fra_ClausRecordClause(ptr noundef readonly captures(none) %0, ptr noundef readonly captures(none) %1, i32 noundef %2, i32 noundef %3) local_unnamed_addr #0 {
  %5 = getelementptr inbounds nuw i8, ptr %1, i64 4
  %6 = load i32, ptr %5, align 4
  %.not = icmp ult i32 %6, 536870912
  br i1 %.not, label %._crit_edge, label %.lr.ph

.lr.ph:                                           ; preds = %4
  %7 = getelementptr inbounds nuw i8, ptr %0, i64 112
  %8 = getelementptr inbounds nuw i8, ptr %0, i64 88
  %9 = getelementptr inbounds nuw i8, ptr %1, i64 8
  br label %10

10:                                               ; preds = %.lr.ph, %Vec_IntPush.exit
  %indvars.iv = phi i64 [ 0, %.lr.ph ], [ %indvars.iv.next, %Vec_IntPush.exit ]
  %11 = load ptr, ptr %7, align 8, !tbaa !86
  %12 = load ptr, ptr %8, align 8, !tbaa !3
  %13 = getelementptr inbounds nuw i8, ptr %12, i64 32
  %14 = load ptr, ptr %13, align 8, !tbaa !36
  %15 = getelementptr inbounds nuw [4 x i32], ptr %9, i64 0, i64 %indvars.iv
  %16 = load i32, ptr %15, align 4, !tbaa !38
  %17 = sext i32 %16 to i64
  %18 = getelementptr inbounds i32, ptr %14, i64 %17
  %19 = load i32, ptr %18, align 4, !tbaa !38
  %20 = shl nsw i32 %19, 1
  %21 = trunc nuw nsw i64 %indvars.iv to i32
  %22 = lshr i32 %2, %21
  %23 = and i32 %22, 1
  %24 = or disjoint i32 %20, %23
  %25 = getelementptr inbounds nuw i8, ptr %11, i64 4
  %26 = load i32, ptr %25, align 4, !tbaa !77
  %27 = load i32, ptr %11, align 8, !tbaa !87
  %28 = icmp eq i32 %26, %27
  br i1 %28, label %29, label %.Vec_IntGrow.exit10_crit_edge.i

.Vec_IntGrow.exit10_crit_edge.i:                  ; preds = %10
  %.phi.trans.insert.i = getelementptr inbounds nuw i8, ptr %11, i64 8
  %.pre.i = load ptr, ptr %.phi.trans.insert.i, align 8, !tbaa !79
  br label %Vec_IntPush.exit

29:                                               ; preds = %10
  %30 = icmp slt i32 %26, 16
  br i1 %30, label %31, label %39

31:                                               ; preds = %29
  %32 = getelementptr inbounds nuw i8, ptr %11, i64 8
  %33 = load ptr, ptr %32, align 8, !tbaa !79
  %.not9.i.i = icmp eq ptr %33, null
  br i1 %.not9.i.i, label %36, label %34

34:                                               ; preds = %31
  %35 = tail call dereferenceable_or_null(64) ptr @realloc(ptr noundef nonnull %33, i64 noundef 64) #25
  br label %Vec_IntGrow.exit.i

36:                                               ; preds = %31
  %37 = tail call noalias dereferenceable_or_null(64) ptr @malloc(i64 noundef 64) #24
  br label %Vec_IntGrow.exit.i

Vec_IntGrow.exit.i:                               ; preds = %36, %34
  %38 = phi ptr [ %35, %34 ], [ %37, %36 ]
  store ptr %38, ptr %32, align 8, !tbaa !79
  store i32 16, ptr %11, align 8, !tbaa !87
  br label %Vec_IntPush.exit

39:                                               ; preds = %29
  %40 = shl nuw nsw i32 %26, 1
  %41 = getelementptr inbounds nuw i8, ptr %11, i64 8
  %42 = load ptr, ptr %41, align 8, !tbaa !79
  %.not9.i9.i = icmp eq ptr %42, null
  %43 = zext nneg i32 %40 to i64
  %44 = shl nuw nsw i64 %43, 2
  br i1 %.not9.i9.i, label %47, label %45

45:                                               ; preds = %39
  %46 = tail call ptr @realloc(ptr noundef nonnull %42, i64 noundef %44) #25
  br label %49

47:                                               ; preds = %39
  %48 = tail call noalias ptr @malloc(i64 noundef %44) #24
  br label %49

49:                                               ; preds = %47, %45
  %50 = phi ptr [ %46, %45 ], [ %48, %47 ]
  store ptr %50, ptr %41, align 8, !tbaa !79
  store i32 %40, ptr %11, align 8, !tbaa !87
  br label %Vec_IntPush.exit

Vec_IntPush.exit:                                 ; preds = %.Vec_IntGrow.exit10_crit_edge.i, %Vec_IntGrow.exit.i, %49
  %51 = phi ptr [ %.pre.i, %.Vec_IntGrow.exit10_crit_edge.i ], [ %50, %49 ], [ %38, %Vec_IntGrow.exit.i ]
  %52 = load i32, ptr %25, align 4, !tbaa !77
  %53 = add nsw i32 %52, 1
  store i32 %53, ptr %25, align 4, !tbaa !77
  %54 = sext i32 %52 to i64
  %55 = getelementptr inbounds i32, ptr %51, i64 %54
  store i32 %24, ptr %55, align 4, !tbaa !38
  %indvars.iv.next = add nuw nsw i64 %indvars.iv, 1
  %56 = load i32, ptr %5, align 4
  %57 = lshr i32 %56, 29
  %58 = zext nneg i32 %57 to i64
  %59 = icmp samesign ult i64 %indvars.iv.next, %58
  br i1 %59, label %10, label %._crit_edge, !llvm.loop !88

._crit_edge:                                      ; preds = %Vec_IntPush.exit, %4
  %60 = getelementptr inbounds nuw i8, ptr %0, i64 120
  %61 = load ptr, ptr %60, align 8, !tbaa !89
  %62 = getelementptr inbounds nuw i8, ptr %0, i64 112
  %63 = load ptr, ptr %62, align 8, !tbaa !86
  %64 = getelementptr i8, ptr %63, i64 4
  %.val = load i32, ptr %64, align 4, !tbaa !77
  %65 = getelementptr inbounds nuw i8, ptr %61, i64 4
  %66 = load i32, ptr %65, align 4, !tbaa !77
  %67 = load i32, ptr %61, align 8, !tbaa !87
  %68 = icmp eq i32 %66, %67
  br i1 %68, label %69, label %.Vec_IntGrow.exit10_crit_edge.i12

.Vec_IntGrow.exit10_crit_edge.i12:                ; preds = %._crit_edge
  %.phi.trans.insert.i13 = getelementptr inbounds nuw i8, ptr %61, i64 8
  %.pre.i14 = load ptr, ptr %.phi.trans.insert.i13, align 8, !tbaa !79
  br label %Vec_IntPush.exit18

69:                                               ; preds = %._crit_edge
  %70 = icmp slt i32 %66, 16
  br i1 %70, label %71, label %79

71:                                               ; preds = %69
  %72 = getelementptr inbounds nuw i8, ptr %61, i64 8
  %73 = load ptr, ptr %72, align 8, !tbaa !79
  %.not9.i.i16 = icmp eq ptr %73, null
  br i1 %.not9.i.i16, label %76, label %74

74:                                               ; preds = %71
  %75 = tail call dereferenceable_or_null(64) ptr @realloc(ptr noundef nonnull %73, i64 noundef 64) #25
  br label %Vec_IntGrow.exit.i17

76:                                               ; preds = %71
  %77 = tail call noalias dereferenceable_or_null(64) ptr @malloc(i64 noundef 64) #24
  br label %Vec_IntGrow.exit.i17

Vec_IntGrow.exit.i17:                             ; preds = %76, %74
  %78 = phi ptr [ %75, %74 ], [ %77, %76 ]
  store ptr %78, ptr %72, align 8, !tbaa !79
  store i32 16, ptr %61, align 8, !tbaa !87
  br label %Vec_IntPush.exit18

79:                                               ; preds = %69
  %80 = shl nuw nsw i32 %66, 1
  %81 = getelementptr inbounds nuw i8, ptr %61, i64 8
  %82 = load ptr, ptr %81, align 8, !tbaa !79
  %.not9.i9.i15 = icmp eq ptr %82, null
  %83 = zext nneg i32 %80 to i64
  %84 = shl nuw nsw i64 %83, 2
  br i1 %.not9.i9.i15, label %87, label %85

85:                                               ; preds = %79
  %86 = tail call ptr @realloc(ptr noundef nonnull %82, i64 noundef %84) #25
  br label %89

87:                                               ; preds = %79
  %88 = tail call noalias ptr @malloc(i64 noundef %84) #24
  br label %89

89:                                               ; preds = %87, %85
  %90 = phi ptr [ %86, %85 ], [ %88, %87 ]
  store ptr %90, ptr %81, align 8, !tbaa !79
  store i32 %80, ptr %61, align 8, !tbaa !87
  br label %Vec_IntPush.exit18

Vec_IntPush.exit18:                               ; preds = %.Vec_IntGrow.exit10_crit_edge.i12, %Vec_IntGrow.exit.i17, %89
  %91 = phi ptr [ %.pre.i14, %.Vec_IntGrow.exit10_crit_edge.i12 ], [ %90, %89 ], [ %78, %Vec_IntGrow.exit.i17 ]
  %92 = load i32, ptr %65, align 4, !tbaa !77
  %93 = add nsw i32 %92, 1
  store i32 %93, ptr %65, align 4, !tbaa !77
  %94 = sext i32 %92 to i64
  %95 = getelementptr inbounds i32, ptr %91, i64 %94
  store i32 %.val, ptr %95, align 4, !tbaa !38
  %96 = getelementptr inbounds nuw i8, ptr %0, i64 128
  %97 = load ptr, ptr %96, align 8, !tbaa !76
  %98 = getelementptr inbounds nuw i8, ptr %97, i64 4
  %99 = load i32, ptr %98, align 4, !tbaa !77
  %100 = load i32, ptr %97, align 8, !tbaa !87
  %101 = icmp eq i32 %99, %100
  br i1 %101, label %102, label %.Vec_IntGrow.exit10_crit_edge.i19

.Vec_IntGrow.exit10_crit_edge.i19:                ; preds = %Vec_IntPush.exit18
  %.phi.trans.insert.i20 = getelementptr inbounds nuw i8, ptr %97, i64 8
  %.pre.i21 = load ptr, ptr %.phi.trans.insert.i20, align 8, !tbaa !79
  br label %Vec_IntPush.exit25

102:                                              ; preds = %Vec_IntPush.exit18
  %103 = icmp slt i32 %99, 16
  br i1 %103, label %104, label %112

104:                                              ; preds = %102
  %105 = getelementptr inbounds nuw i8, ptr %97, i64 8
  %106 = load ptr, ptr %105, align 8, !tbaa !79
  %.not9.i.i23 = icmp eq ptr %106, null
  br i1 %.not9.i.i23, label %109, label %107

107:                                              ; preds = %104
  %108 = tail call dereferenceable_or_null(64) ptr @realloc(ptr noundef nonnull %106, i64 noundef 64) #25
  br label %Vec_IntGrow.exit.i24

109:                                              ; preds = %104
  %110 = tail call noalias dereferenceable_or_null(64) ptr @malloc(i64 noundef 64) #24
  br label %Vec_IntGrow.exit.i24

Vec_IntGrow.exit.i24:                             ; preds = %109, %107
  %111 = phi ptr [ %108, %107 ], [ %110, %109 ]
  store ptr %111, ptr %105, align 8, !tbaa !79
  store i32 16, ptr %97, align 8, !tbaa !87
  br label %Vec_IntPush.exit25

112:                                              ; preds = %102
  %113 = shl nuw nsw i32 %99, 1
  %114 = getelementptr inbounds nuw i8, ptr %97, i64 8
  %115 = load ptr, ptr %114, align 8, !tbaa !79
  %.not9.i9.i22 = icmp eq ptr %115, null
  %116 = zext nneg i32 %113 to i64
  %117 = shl nuw nsw i64 %116, 2
  br i1 %.not9.i9.i22, label %120, label %118

118:                                              ; preds = %112
  %119 = tail call ptr @realloc(ptr noundef nonnull %115, i64 noundef %117) #25
  br label %122

120:                                              ; preds = %112
  %121 = tail call noalias ptr @malloc(i64 noundef %117) #24
  br label %122

122:                                              ; preds = %120, %118
  %123 = phi ptr [ %119, %118 ], [ %121, %120 ]
  store ptr %123, ptr %114, align 8, !tbaa !79
  store i32 %113, ptr %97, align 8, !tbaa !87
  br label %Vec_IntPush.exit25

Vec_IntPush.exit25:                               ; preds = %.Vec_IntGrow.exit10_crit_edge.i19, %Vec_IntGrow.exit.i24, %122
  %124 = phi ptr [ %.pre.i21, %.Vec_IntGrow.exit10_crit_edge.i19 ], [ %123, %122 ], [ %111, %Vec_IntGrow.exit.i24 ]
  %125 = load i32, ptr %98, align 4, !tbaa !77
  %126 = add nsw i32 %125, 1
  store i32 %126, ptr %98, align 4, !tbaa !77
  %127 = sext i32 %125 to i64
  %128 = getelementptr inbounds i32, ptr %124, i64 %127
  store i32 %3, ptr %128, align 4, !tbaa !38
  ret void
}